; Function Attrs: mustprogress nofree norecurse nosync nounwind willreturn memory(argmem: write) uwtable
define dso_local void @_ZN4llvm5dwarf14UnwindLocation21createIsCFAPlusOffsetEi(ptr dead_on_unwind noalias writable writeonly sret(%"class.llvm::dwarf::UnwindLocation") align 8 captures(none) initializes((0, 20), (56, 57), (64, 65)) %0, i32 noundef %1) local_unnamed_addr #0 align 2 {
  store i32 3, ptr %0, align 8
  %3 = getelementptr inbounds nuw i8, ptr %0, i64 4
  store i32 -1, ptr %3, align 4
  %4 = getelementptr inbounds nuw i8, ptr %0, i64 8
  store i32 %1, ptr %4, align 8
  %5 = getelementptr inbounds nuw i8, ptr %0, i64 12
  store i64 0, ptr %5, align 4
  %6 = getelementptr inbounds nuw i8, ptr %0, i64 56
  store i8 0, ptr %6, align 8
  %7 = getelementptr inbounds nuw i8, ptr %0, i64 64
  store i8 0, ptr %7, align 8
  ret void
}